; Function Attrs: mustprogress uwtable
define noundef nonnull align 8 dereferenceable(56) ptr @_ZN7rocksdb23GetRocksBuildPropertiesB5cxx11Ev() local_unnamed_addr #5 personality ptr @__gxx_personality_v0 {
  %1 = load atomic i8, ptr @_ZGVZN7rocksdb23GetRocksBuildPropertiesB5cxx11EvE5propsB5cxx11 acquire, align 8
  %2 = icmp eq i8 %1, 0
  br i1 %2, label %3, label %9, !prof !4

3:                                                ; preds = %0
  %4 = tail call i32 @__cxa_guard_acquire(ptr nonnull @_ZGVZN7rocksdb23GetRocksBuildPropertiesB5cxx11EvE5propsB5cxx11) #20
  %.not = icmp eq i32 %4, 0
  br i1 %.not, label %9, label %5

5:                                                ; preds = %3
  %6 = invoke fastcc noundef ptr @_ZN7rocksdbL17LoadPropertiesSetB5cxx11Ev()
          to label %7 unwind label %11

7:                                                ; preds = %5
  store ptr %6, ptr @_ZZN7rocksdb23GetRocksBuildPropertiesB5cxx11EvE5propsB5cxx11, align 8, !tbaa !5
  %8 = tail call i32 @__cxa_atexit(ptr nonnull @_ZNSt10unique_ptrISt13unordered_mapINSt7__cxx1112basic_stringIcSt11char_traitsIcESaIcEEES6_St4hashIS6_ESt8equal_toIS6_ESaISt4pairIKS6_S6_EEESt14default_deleteISF_EED2Ev, ptr nonnull @_ZZN7rocksdb23GetRocksBuildPropertiesB5cxx11EvE5propsB5cxx11, ptr nonnull @__dso_handle) #20
  tail call void @__cxa_guard_release(ptr nonnull @_ZGVZN7rocksdb23GetRocksBuildPropertiesB5cxx11EvE5propsB5cxx11) #20
  br label %9

9:                                                ; preds = %7, %3, %0
  %10 = load ptr, ptr @_ZZN7rocksdb23GetRocksBuildPropertiesB5cxx11EvE5propsB5cxx11, align 8, !tbaa !5
  ret ptr %10

11:                                               ; preds = %5
  %12 = landingpad { ptr, i32 }
          cleanup
  tail call void @__cxa_guard_abort(ptr nonnull @_ZGVZN7rocksdb23GetRocksBuildPropertiesB5cxx11EvE5propsB5cxx11) #20
  resume { ptr, i32 } %12
}